ARM GAS  C:\Users\danie\AppData\Local\Temp\ccB7IeSO.s 			page 1


   1              		.cpu cortex-m4
   2              		.arch armv7e-m
   3              		.fpu fpv4-sp-d16
   4              		.eabi_attribute 27, 1
   5              		.eabi_attribute 28, 1
   6              		.eabi_attribute 20, 1
   7              		.eabi_attribute 21, 1
   8              		.eabi_attribute 23, 3
   9              		.eabi_attribute 24, 1
  10              		.eabi_attribute 25, 1
  11              		.eabi_attribute 26, 1
  12              		.eabi_attribute 30, 1
  13              		.eabi_attribute 34, 1
  14              		.eabi_attribute 18, 4
  15              		.file	"parser_simple.c"
  16              		.text
  17              	.Ltext0:
  18              		.cfi_sections	.debug_frame
  19              		.section	.rodata.Parse_ParseLED.str1.4,"aMS",%progbits,1
  20              		.align	2
  21              	.LC0:
  22 0000 2C00     		.ascii	",\000"
  23 0002 0000     		.align	2
  24              	.LC1:
  25 0004 4C454420 		.ascii	"LED wrong value. Please type 0 or 1!\012\015\000"
  25      77726F6E 
  25      67207661 
  25      6C75652E 
  25      20506C65 
  26 002b 00       		.align	2
  27              	.LC2:
  28 002c 4C454420 		.ascii	"LED turned on!\012\015\000"
  28      7475726E 
  28      6564206F 
  28      6E210A0D 
  28      00
  29 003d 000000   		.align	2
  30              	.LC3:
  31 0040 4C454420 		.ascii	"LED turned off!\012\015\000"
  31      7475726E 
  31      6564206F 
  31      6666210A 
  31      0D00
  32              		.section	.text.Parse_ParseLED,"ax",%progbits
  33              		.align	1
  34              		.syntax unified
  35              		.thumb
  36              		.thumb_func
  38              	Parse_ParseLED:
  39              	.LFB134:
  40              		.file 1 "Core/Src/parser_simple.c"
   1:Core/Src/parser_simple.c **** /*
   2:Core/Src/parser_simple.c ****  * parser_simple.c
   3:Core/Src/parser_simple.c ****  *
   4:Core/Src/parser_simple.c ****  *  Created on: 18 lis 2022
   5:Core/Src/parser_simple.c ****  *      Author: gerwant22
   6:Core/Src/parser_simple.c ****  */
ARM GAS  C:\Users\danie\AppData\Local\Temp\ccB7IeSO.s 			page 2


   7:Core/Src/parser_simple.c **** #include "main.h"
   8:Core/Src/parser_simple.c **** #include "ring_buffer.h"
   9:Core/Src/parser_simple.c **** #include "parser_simple.h"
  10:Core/Src/parser_simple.c **** #include "utils.h"
  11:Core/Src/parser_simple.c **** #include "string.h"
  12:Core/Src/parser_simple.c **** #include "stdio.h"
  13:Core/Src/parser_simple.c **** #include "stdlib.h"
  14:Core/Src/parser_simple.c **** 
  15:Core/Src/parser_simple.c **** void Parser_TakeLine(RingBuffer_t *Buf, uint8_t *Destination)
  16:Core/Src/parser_simple.c **** {
  17:Core/Src/parser_simple.c ****     uint8_t Tmp;
  18:Core/Src/parser_simple.c ****     uint8_t i = 0;
  19:Core/Src/parser_simple.c ****     do
  20:Core/Src/parser_simple.c ****     {
  21:Core/Src/parser_simple.c ****         RB_Read(Buf, &Tmp);
  22:Core/Src/parser_simple.c ****         if (Tmp == ENDLINE)
  23:Core/Src/parser_simple.c ****         {
  24:Core/Src/parser_simple.c ****             Destination[i] = 0;
  25:Core/Src/parser_simple.c ****         }
  26:Core/Src/parser_simple.c ****         else
  27:Core/Src/parser_simple.c ****         {
  28:Core/Src/parser_simple.c ****             Destination[i] = Tmp;
  29:Core/Src/parser_simple.c ****         }
  30:Core/Src/parser_simple.c **** 
  31:Core/Src/parser_simple.c ****         i++;
  32:Core/Src/parser_simple.c ****     } while (Tmp != ENDLINE);
  33:Core/Src/parser_simple.c **** }
  34:Core/Src/parser_simple.c **** 
  35:Core/Src/parser_simple.c **** // LED=
  36:Core/Src/parser_simple.c **** //      0
  37:Core/Src/parser_simple.c **** //      1
  38:Core/Src/parser_simple.c **** 
  39:Core/Src/parser_simple.c **** static void Parse_ParseLED()
  40:Core/Src/parser_simple.c **** {
  41              		.loc 1 40 1 view -0
  42              		.cfi_startproc
  43              		@ args = 0, pretend = 0, frame = 0
  44              		@ frame_needed = 0, uses_anonymous_args = 0
  45 0000 08B5     		push	{r3, lr}
  46              		.cfi_def_cfa_offset 8
  47              		.cfi_offset 3, -8
  48              		.cfi_offset 14, -4
  41:Core/Src/parser_simple.c ****     // String to parse:
  42:Core/Src/parser_simple.c ****     // 0
  43:Core/Src/parser_simple.c ****     // 1
  44:Core/Src/parser_simple.c **** 
  45:Core/Src/parser_simple.c ****     char *ParsePointer = strtok(NULL, ",");
  49              		.loc 1 45 5 view .LVU1
  50              		.loc 1 45 26 is_stmt 0 view .LVU2
  51 0002 1349     		ldr	r1, .L9
  52 0004 0020     		movs	r0, #0
  53 0006 FFF7FEFF 		bl	strtok
  54              	.LVL0:
  46:Core/Src/parser_simple.c ****     if (strlen(ParsePointer) > 0)
  55              		.loc 1 46 5 is_stmt 1 view .LVU3
  56              		.loc 1 46 30 is_stmt 0 view .LVU4
  57 000a 0378     		ldrb	r3, [r0]	@ zero_extendqisi2
ARM GAS  C:\Users\danie\AppData\Local\Temp\ccB7IeSO.s 			page 3


  58              		.loc 1 46 8 view .LVU5
  59 000c 43B1     		cbz	r3, .L1
  47:Core/Src/parser_simple.c ****     {
  48:Core/Src/parser_simple.c ****         if (ParsePointer[0] < '0' || ParsePointer[0] > '1')
  60              		.loc 1 48 9 is_stmt 1 view .LVU6
  61              		.loc 1 48 35 is_stmt 0 view .LVU7
  62 000e A3F13002 		sub	r2, r3, #48
  63 0012 D2B2     		uxtb	r2, r2
  64              		.loc 1 48 12 view .LVU8
  65 0014 012A     		cmp	r2, #1
  66 0016 04D8     		bhi	.L6
  49:Core/Src/parser_simple.c ****         {
  50:Core/Src/parser_simple.c ****             UartLog("LED wrong value. Please type 0 or 1!\n\r");
  51:Core/Src/parser_simple.c ****             return;
  52:Core/Src/parser_simple.c ****         }
  53:Core/Src/parser_simple.c **** 
  54:Core/Src/parser_simple.c ****         if (ParsePointer[0] == '1')
  67              		.loc 1 54 9 is_stmt 1 view .LVU9
  68              		.loc 1 54 12 is_stmt 0 view .LVU10
  69 0018 312B     		cmp	r3, #49
  70 001a 06D0     		beq	.L7
  55:Core/Src/parser_simple.c ****         {
  56:Core/Src/parser_simple.c ****             HAL_GPIO_WritePin(LD2_GPIO_Port, LD2_Pin, GPIO_PIN_SET);
  57:Core/Src/parser_simple.c ****             UartLog("LED turned on!\n\r");
  58:Core/Src/parser_simple.c ****         }
  59:Core/Src/parser_simple.c ****         else if (ParsePointer[0] == '0')
  71              		.loc 1 59 14 is_stmt 1 view .LVU11
  72              		.loc 1 59 17 is_stmt 0 view .LVU12
  73 001c 302B     		cmp	r3, #48
  74 001e 0DD0     		beq	.L8
  75              	.LVL1:
  76              	.L1:
  60:Core/Src/parser_simple.c ****         {
  61:Core/Src/parser_simple.c ****             HAL_GPIO_WritePin(LD2_GPIO_Port, LD2_Pin, GPIO_PIN_RESET);
  62:Core/Src/parser_simple.c ****             UartLog("LED turned off!\n\r");
  63:Core/Src/parser_simple.c ****         }
  64:Core/Src/parser_simple.c ****     }
  65:Core/Src/parser_simple.c **** }
  77              		.loc 1 65 1 view .LVU13
  78 0020 08BD     		pop	{r3, pc}
  79              	.LVL2:
  80              	.L6:
  50:Core/Src/parser_simple.c ****             return;
  81              		.loc 1 50 13 is_stmt 1 view .LVU14
  82 0022 0C48     		ldr	r0, .L9+4
  83              	.LVL3:
  50:Core/Src/parser_simple.c ****             return;
  84              		.loc 1 50 13 is_stmt 0 view .LVU15
  85 0024 FFF7FEFF 		bl	UartLog
  86              	.LVL4:
  51:Core/Src/parser_simple.c ****         }
  87              		.loc 1 51 13 is_stmt 1 view .LVU16
  88 0028 FAE7     		b	.L1
  89              	.LVL5:
  90              	.L7:
  56:Core/Src/parser_simple.c ****             UartLog("LED turned on!\n\r");
  91              		.loc 1 56 13 view .LVU17
ARM GAS  C:\Users\danie\AppData\Local\Temp\ccB7IeSO.s 			page 4


  92 002a 0122     		movs	r2, #1
  93 002c 2021     		movs	r1, #32
  94 002e 0A48     		ldr	r0, .L9+8
  95              	.LVL6:
  56:Core/Src/parser_simple.c ****             UartLog("LED turned on!\n\r");
  96              		.loc 1 56 13 is_stmt 0 view .LVU18
  97 0030 FFF7FEFF 		bl	HAL_GPIO_WritePin
  98              	.LVL7:
  57:Core/Src/parser_simple.c ****         }
  99              		.loc 1 57 13 is_stmt 1 view .LVU19
 100 0034 0948     		ldr	r0, .L9+12
 101 0036 FFF7FEFF 		bl	UartLog
 102              	.LVL8:
 103 003a F1E7     		b	.L1
 104              	.LVL9:
 105              	.L8:
  61:Core/Src/parser_simple.c ****             UartLog("LED turned off!\n\r");
 106              		.loc 1 61 13 view .LVU20
 107 003c 0022     		movs	r2, #0
 108 003e 2021     		movs	r1, #32
 109 0040 0548     		ldr	r0, .L9+8
 110              	.LVL10:
  61:Core/Src/parser_simple.c ****             UartLog("LED turned off!\n\r");
 111              		.loc 1 61 13 is_stmt 0 view .LVU21
 112 0042 FFF7FEFF 		bl	HAL_GPIO_WritePin
 113              	.LVL11:
  62:Core/Src/parser_simple.c ****         }
 114              		.loc 1 62 13 is_stmt 1 view .LVU22
 115 0046 0648     		ldr	r0, .L9+16
 116 0048 FFF7FEFF 		bl	UartLog
 117              	.LVL12:
 118 004c E8E7     		b	.L1
 119              	.L10:
 120 004e 00BF     		.align	2
 121              	.L9:
 122 0050 00000000 		.word	.LC0
 123 0054 04000000 		.word	.LC1
 124 0058 00000240 		.word	1073872896
 125 005c 2C000000 		.word	.LC2
 126 0060 40000000 		.word	.LC3
 127              		.cfi_endproc
 128              	.LFE134:
 130              		.section	.rodata.Parse_ParseENV.str1.4,"aMS",%progbits,1
 131              		.align	2
 132              	.LC4:
 133 0000 454E5620 		.ascii	"ENV wrong value!\012\015\000"
 133      77726F6E 
 133      67207661 
 133      6C756521 
 133      0A0D00
 134              		.global	__aeabi_d2f
 135 0013 00       		.align	2
 136              	.LC5:
 137 0014 454E5620 		.ascii	"ENV too less values. ENV=X,Y,Z!\012\015\000"
 137      746F6F20 
 137      6C657373 
 137      2076616C 
ARM GAS  C:\Users\danie\AppData\Local\Temp\ccB7IeSO.s 			page 5


 137      7565732E 
 138              		.global	__aeabi_f2d
 139 0036 0000     		.align	2
 140              	.LC6:
 141 0038 54656D70 		.ascii	"Temperature: %.1f\012\015\000"
 141      65726174 
 141      7572653A 
 141      20252E31 
 141      660A0D00 
 142              		.align	2
 143              	.LC7:
 144 004c 48756D69 		.ascii	"Humidity: %.1f\012\015\000"
 144      64697479 
 144      3A20252E 
 144      31660A0D 
 144      00
 145 005d 000000   		.align	2
 146              	.LC8:
 147 0060 50726573 		.ascii	"Presure: %.1f\012\015\000"
 147      7572653A 
 147      20252E31 
 147      660A0D00 
 148              		.section	.text.Parse_ParseENV,"ax",%progbits
 149              		.align	1
 150              		.syntax unified
 151              		.thumb
 152              		.thumb_func
 154              	Parse_ParseENV:
 155              	.LFB135:
  66:Core/Src/parser_simple.c **** // ENV=
  67:Core/Src/parser_simple.c **** //      x,y,z
  68:Core/Src/parser_simple.c **** static void Parse_ParseENV()
  69:Core/Src/parser_simple.c **** {
 156              		.loc 1 69 1 view -0
 157              		.cfi_startproc
 158              		@ args = 0, pretend = 0, frame = 48
 159              		@ frame_needed = 0, uses_anonymous_args = 0
 160 0000 10B5     		push	{r4, lr}
 161              		.cfi_def_cfa_offset 8
 162              		.cfi_offset 4, -8
 163              		.cfi_offset 14, -4
 164 0002 8CB0     		sub	sp, sp, #48
 165              		.cfi_def_cfa_offset 56
  70:Core/Src/parser_simple.c ****     uint8_t i, j;
 166              		.loc 1 70 5 view .LVU24
  71:Core/Src/parser_simple.c ****     float EnvParameters[3];
 167              		.loc 1 71 5 view .LVU25
  72:Core/Src/parser_simple.c ****     char Message[32];
 168              		.loc 1 72 5 view .LVU26
  73:Core/Src/parser_simple.c **** 
  74:Core/Src/parser_simple.c ****     for (i = 0; i < 3; i++)
 169              		.loc 1 74 5 view .LVU27
 170              	.LVL13:
 171              		.loc 1 74 12 is_stmt 0 view .LVU28
 172 0004 0024     		movs	r4, #0
 173              	.LVL14:
 174              	.L12:
ARM GAS  C:\Users\danie\AppData\Local\Temp\ccB7IeSO.s 			page 6


 175              		.loc 1 74 19 is_stmt 1 discriminator 1 view .LVU29
 176 0006 022C     		cmp	r4, #2
 177 0008 24D8     		bhi	.L23
 178              	.LBB2:
  75:Core/Src/parser_simple.c ****     {
  76:Core/Src/parser_simple.c ****         char *ParsePointer = strtok(NULL, ",");
 179              		.loc 1 76 9 view .LVU30
 180              		.loc 1 76 30 is_stmt 0 view .LVU31
 181 000a 2549     		ldr	r1, .L27
 182 000c 0020     		movs	r0, #0
 183 000e FFF7FEFF 		bl	strtok
 184              	.LVL15:
  77:Core/Src/parser_simple.c ****         if (strlen(ParsePointer) > 0)
 185              		.loc 1 77 9 is_stmt 1 view .LVU32
 186              		.loc 1 77 34 is_stmt 0 view .LVU33
 187 0012 0178     		ldrb	r1, [r0]	@ zero_extendqisi2
 188              		.loc 1 77 12 view .LVU34
 189 0014 D1B1     		cbz	r1, .L24
  78:Core/Src/parser_simple.c ****         {
  79:Core/Src/parser_simple.c ****             // X.XX
  80:Core/Src/parser_simple.c ****             // Y.YY
  81:Core/Src/parser_simple.c ****             // Z.ZZ
  82:Core/Src/parser_simple.c ****             for (j = 0; ParsePointer[j] != 0; j++)
 190              		.loc 1 82 20 view .LVU35
 191 0016 0023     		movs	r3, #0
 192              	.L13:
 193              	.LVL16:
 194              		.loc 1 82 41 is_stmt 1 discriminator 1 view .LVU36
 195              		.loc 1 82 37 is_stmt 0 discriminator 1 view .LVU37
 196 0018 C25C     		ldrb	r2, [r0, r3]	@ zero_extendqisi2
 197              		.loc 1 82 41 discriminator 1 view .LVU38
 198 001a 4AB1     		cbz	r2, .L25
  83:Core/Src/parser_simple.c ****             {
  84:Core/Src/parser_simple.c ****                 if ((ParsePointer[0] < '0' || ParsePointer[0] > '9') && (ParsePointer[0] == '.'))
 199              		.loc 1 84 17 is_stmt 1 view .LVU39
 200              		.loc 1 84 20 is_stmt 0 view .LVU40
 201 001c 2E29     		cmp	r1, #46
 202 001e 02D0     		beq	.L26
  82:Core/Src/parser_simple.c ****             {
 203              		.loc 1 82 48 is_stmt 1 discriminator 2 view .LVU41
 204 0020 0133     		adds	r3, r3, #1
 205              	.LVL17:
  82:Core/Src/parser_simple.c ****             {
 206              		.loc 1 82 48 is_stmt 0 discriminator 2 view .LVU42
 207 0022 DBB2     		uxtb	r3, r3
 208              	.LVL18:
  82:Core/Src/parser_simple.c ****             {
 209              		.loc 1 82 48 discriminator 2 view .LVU43
 210 0024 F8E7     		b	.L13
 211              	.L26:
  85:Core/Src/parser_simple.c ****                 {
  86:Core/Src/parser_simple.c ****                     UartLog("ENV wrong value!\n\r");
 212              		.loc 1 86 21 is_stmt 1 view .LVU44
 213 0026 1F48     		ldr	r0, .L27+4
 214              	.LVL19:
 215              		.loc 1 86 21 is_stmt 0 view .LVU45
 216 0028 FFF7FEFF 		bl	UartLog
ARM GAS  C:\Users\danie\AppData\Local\Temp\ccB7IeSO.s 			page 7


 217              	.LVL20:
  87:Core/Src/parser_simple.c ****                     return;
 218              		.loc 1 87 21 is_stmt 1 view .LVU46
 219              	.L11:
 220              		.loc 1 87 21 is_stmt 0 view .LVU47
 221              	.LBE2:
  88:Core/Src/parser_simple.c ****                 }
  89:Core/Src/parser_simple.c ****             }
  90:Core/Src/parser_simple.c ****             // atof - asci to float
  91:Core/Src/parser_simple.c ****             EnvParameters[i] = atof(ParsePointer);
  92:Core/Src/parser_simple.c ****         }
  93:Core/Src/parser_simple.c ****         else
  94:Core/Src/parser_simple.c ****         {
  95:Core/Src/parser_simple.c ****             UartLog("ENV too less values. ENV=X,Y,Z!\n\r");
  96:Core/Src/parser_simple.c ****             return;
  97:Core/Src/parser_simple.c ****         }
  98:Core/Src/parser_simple.c ****     }
  99:Core/Src/parser_simple.c ****     sprintf(Message, "Temperature: %.1f\n\r", EnvParameters[0]);
 100:Core/Src/parser_simple.c ****     UartLog(Message);
 101:Core/Src/parser_simple.c **** 
 102:Core/Src/parser_simple.c ****     sprintf(Message, "Humidity: %.1f\n\r", EnvParameters[1]);
 103:Core/Src/parser_simple.c ****     UartLog(Message);
 104:Core/Src/parser_simple.c **** 
 105:Core/Src/parser_simple.c ****     sprintf(Message, "Presure: %.1f\n\r", EnvParameters[2]);
 106:Core/Src/parser_simple.c ****     UartLog(Message);
 107:Core/Src/parser_simple.c **** }
 222              		.loc 1 107 1 view .LVU48
 223 002c 0CB0     		add	sp, sp, #48
 224              		.cfi_remember_state
 225              		.cfi_def_cfa_offset 8
 226              		@ sp needed
 227 002e 10BD     		pop	{r4, pc}
 228              	.LVL21:
 229              	.L25:
 230              		.cfi_restore_state
 231              	.LBB3:
  91:Core/Src/parser_simple.c ****         }
 232              		.loc 1 91 13 is_stmt 1 view .LVU49
  91:Core/Src/parser_simple.c ****         }
 233              		.loc 1 91 32 is_stmt 0 view .LVU50
 234 0030 FFF7FEFF 		bl	atof
 235              	.LVL22:
  91:Core/Src/parser_simple.c ****         }
 236              		.loc 1 91 32 view .LVU51
 237 0034 51EC100B 		vmov	r0, r1, d0
 238 0038 FFF7FEFF 		bl	__aeabi_d2f
 239              	.LVL23:
  91:Core/Src/parser_simple.c ****         }
 240              		.loc 1 91 30 view .LVU52
 241 003c 0CAB     		add	r3, sp, #48
 242 003e 03EB8403 		add	r3, r3, r4, lsl #2
 243 0042 43F80C0C 		str	r0, [r3, #-12]	@ float
 244              	.LBE3:
  74:Core/Src/parser_simple.c ****     {
 245              		.loc 1 74 25 is_stmt 1 view .LVU53
 246 0046 0134     		adds	r4, r4, #1
 247              	.LVL24:
ARM GAS  C:\Users\danie\AppData\Local\Temp\ccB7IeSO.s 			page 8


  74:Core/Src/parser_simple.c ****     {
 248              		.loc 1 74 25 is_stmt 0 view .LVU54
 249 0048 E4B2     		uxtb	r4, r4
 250              	.LVL25:
  74:Core/Src/parser_simple.c ****     {
 251              		.loc 1 74 25 view .LVU55
 252 004a DCE7     		b	.L12
 253              	.LVL26:
 254              	.L24:
 255              	.LBB4:
  95:Core/Src/parser_simple.c ****             return;
 256              		.loc 1 95 13 is_stmt 1 view .LVU56
 257 004c 1648     		ldr	r0, .L27+8
 258              	.LVL27:
  95:Core/Src/parser_simple.c ****             return;
 259              		.loc 1 95 13 is_stmt 0 view .LVU57
 260 004e FFF7FEFF 		bl	UartLog
 261              	.LVL28:
  96:Core/Src/parser_simple.c ****         }
 262              		.loc 1 96 13 is_stmt 1 view .LVU58
 263 0052 EBE7     		b	.L11
 264              	.L23:
  96:Core/Src/parser_simple.c ****         }
 265              		.loc 1 96 13 is_stmt 0 view .LVU59
 266              	.LBE4:
  99:Core/Src/parser_simple.c ****     UartLog(Message);
 267              		.loc 1 99 5 is_stmt 1 view .LVU60
 268 0054 0998     		ldr	r0, [sp, #36]	@ float
 269 0056 FFF7FEFF 		bl	__aeabi_f2d
 270              	.LVL29:
 271 005a 0246     		mov	r2, r0
 272 005c 0B46     		mov	r3, r1
 273 005e 1349     		ldr	r1, .L27+12
 274 0060 01A8     		add	r0, sp, #4
 275 0062 FFF7FEFF 		bl	sprintf
 276              	.LVL30:
 100:Core/Src/parser_simple.c **** 
 277              		.loc 1 100 5 view .LVU61
 278 0066 01A8     		add	r0, sp, #4
 279 0068 FFF7FEFF 		bl	UartLog
 280              	.LVL31:
 102:Core/Src/parser_simple.c ****     UartLog(Message);
 281              		.loc 1 102 5 view .LVU62
 282 006c 0A98     		ldr	r0, [sp, #40]	@ float
 283 006e FFF7FEFF 		bl	__aeabi_f2d
 284              	.LVL32:
 285 0072 0246     		mov	r2, r0
 286 0074 0B46     		mov	r3, r1
 287 0076 0E49     		ldr	r1, .L27+16
 288 0078 01A8     		add	r0, sp, #4
 289 007a FFF7FEFF 		bl	sprintf
 290              	.LVL33:
 103:Core/Src/parser_simple.c **** 
 291              		.loc 1 103 5 view .LVU63
 292 007e 01A8     		add	r0, sp, #4
 293 0080 FFF7FEFF 		bl	UartLog
 294              	.LVL34:
ARM GAS  C:\Users\danie\AppData\Local\Temp\ccB7IeSO.s 			page 9


 105:Core/Src/parser_simple.c ****     UartLog(Message);
 295              		.loc 1 105 5 view .LVU64
 296 0084 0B98     		ldr	r0, [sp, #44]	@ float
 297 0086 FFF7FEFF 		bl	__aeabi_f2d
 298              	.LVL35:
 299 008a 0246     		mov	r2, r0
 300 008c 0B46     		mov	r3, r1
 301 008e 0949     		ldr	r1, .L27+20
 302 0090 01A8     		add	r0, sp, #4
 303 0092 FFF7FEFF 		bl	sprintf
 304              	.LVL36:
 106:Core/Src/parser_simple.c **** }
 305              		.loc 1 106 5 view .LVU65
 306 0096 01A8     		add	r0, sp, #4
 307 0098 FFF7FEFF 		bl	UartLog
 308              	.LVL37:
 309 009c C6E7     		b	.L11
 310              	.L28:
 311 009e 00BF     		.align	2
 312              	.L27:
 313 00a0 00000000 		.word	.LC0
 314 00a4 00000000 		.word	.LC4
 315 00a8 14000000 		.word	.LC5
 316 00ac 38000000 		.word	.LC6
 317 00b0 4C000000 		.word	.LC7
 318 00b4 60000000 		.word	.LC8
 319              		.cfi_endproc
 320              	.LFE135:
 322              		.section	.text.Parser_TakeLine,"ax",%progbits
 323              		.align	1
 324              		.global	Parser_TakeLine
 325              		.syntax unified
 326              		.thumb
 327              		.thumb_func
 329              	Parser_TakeLine:
 330              	.LVL38:
 331              	.LFB133:
  16:Core/Src/parser_simple.c ****     uint8_t Tmp;
 332              		.loc 1 16 1 view -0
 333              		.cfi_startproc
 334              		@ args = 0, pretend = 0, frame = 8
 335              		@ frame_needed = 0, uses_anonymous_args = 0
  16:Core/Src/parser_simple.c ****     uint8_t Tmp;
 336              		.loc 1 16 1 is_stmt 0 view .LVU67
 337 0000 70B5     		push	{r4, r5, r6, lr}
 338              		.cfi_def_cfa_offset 16
 339              		.cfi_offset 4, -16
 340              		.cfi_offset 5, -12
 341              		.cfi_offset 6, -8
 342              		.cfi_offset 14, -4
 343 0002 82B0     		sub	sp, sp, #8
 344              		.cfi_def_cfa_offset 24
 345 0004 0646     		mov	r6, r0
 346 0006 0D46     		mov	r5, r1
  17:Core/Src/parser_simple.c ****     uint8_t i = 0;
 347              		.loc 1 17 5 is_stmt 1 view .LVU68
  18:Core/Src/parser_simple.c ****     do
ARM GAS  C:\Users\danie\AppData\Local\Temp\ccB7IeSO.s 			page 10


 348              		.loc 1 18 5 view .LVU69
 349              	.LVL39:
  18:Core/Src/parser_simple.c ****     do
 350              		.loc 1 18 13 is_stmt 0 view .LVU70
 351 0008 0024     		movs	r4, #0
 352 000a 06E0     		b	.L32
 353              	.LVL40:
 354              	.L30:
  28:Core/Src/parser_simple.c ****         }
 355              		.loc 1 28 13 is_stmt 1 view .LVU71
  28:Core/Src/parser_simple.c ****         }
 356              		.loc 1 28 28 is_stmt 0 view .LVU72
 357 000c 2B55     		strb	r3, [r5, r4]
 358              	.L31:
  31:Core/Src/parser_simple.c ****     } while (Tmp != ENDLINE);
 359              		.loc 1 31 9 is_stmt 1 view .LVU73
  31:Core/Src/parser_simple.c ****     } while (Tmp != ENDLINE);
 360              		.loc 1 31 10 is_stmt 0 view .LVU74
 361 000e 0134     		adds	r4, r4, #1
 362              	.LVL41:
  31:Core/Src/parser_simple.c ****     } while (Tmp != ENDLINE);
 363              		.loc 1 31 10 view .LVU75
 364 0010 E4B2     		uxtb	r4, r4
 365              	.LVL42:
  32:Core/Src/parser_simple.c **** }
 366              		.loc 1 32 18 is_stmt 1 view .LVU76
 367 0012 9DF80730 		ldrb	r3, [sp, #7]	@ zero_extendqisi2
 368 0016 0A2B     		cmp	r3, #10
 369 0018 0BD0     		beq	.L34
 370              	.LVL43:
 371              	.L32:
  19:Core/Src/parser_simple.c ****     {
 372              		.loc 1 19 5 view .LVU77
  21:Core/Src/parser_simple.c ****         if (Tmp == ENDLINE)
 373              		.loc 1 21 9 view .LVU78
 374 001a 0DF10701 		add	r1, sp, #7
 375 001e 3046     		mov	r0, r6
 376 0020 FFF7FEFF 		bl	RB_Read
 377              	.LVL44:
  22:Core/Src/parser_simple.c ****         {
 378              		.loc 1 22 9 view .LVU79
  22:Core/Src/parser_simple.c ****         {
 379              		.loc 1 22 17 is_stmt 0 view .LVU80
 380 0024 9DF80730 		ldrb	r3, [sp, #7]	@ zero_extendqisi2
  22:Core/Src/parser_simple.c ****         {
 381              		.loc 1 22 12 view .LVU81
 382 0028 0A2B     		cmp	r3, #10
 383 002a EFD1     		bne	.L30
  24:Core/Src/parser_simple.c ****         }
 384              		.loc 1 24 13 is_stmt 1 view .LVU82
  24:Core/Src/parser_simple.c ****         }
 385              		.loc 1 24 28 is_stmt 0 view .LVU83
 386 002c 0023     		movs	r3, #0
 387 002e 2B55     		strb	r3, [r5, r4]
 388 0030 EDE7     		b	.L31
 389              	.L34:
  33:Core/Src/parser_simple.c **** 
ARM GAS  C:\Users\danie\AppData\Local\Temp\ccB7IeSO.s 			page 11


 390              		.loc 1 33 1 view .LVU84
 391 0032 02B0     		add	sp, sp, #8
 392              		.cfi_def_cfa_offset 16
 393              		@ sp needed
 394 0034 70BD     		pop	{r4, r5, r6, pc}
  33:Core/Src/parser_simple.c **** 
 395              		.loc 1 33 1 view .LVU85
 396              		.cfi_endproc
 397              	.LFE133:
 399              		.section	.rodata.Parser_Parse.str1.4,"aMS",%progbits,1
 400              		.align	2
 401              	.LC9:
 402 0000 3D00     		.ascii	"=\000"
 403 0002 0000     		.align	2
 404              	.LC10:
 405 0004 4C454400 		.ascii	"LED\000"
 406              		.align	2
 407              	.LC11:
 408 0008 454E5600 		.ascii	"ENV\000"
 409              		.section	.text.Parser_Parse,"ax",%progbits
 410              		.align	1
 411              		.global	Parser_Parse
 412              		.syntax unified
 413              		.thumb
 414              		.thumb_func
 416              	Parser_Parse:
 417              	.LVL45:
 418              	.LFB136:
 108:Core/Src/parser_simple.c **** 
 109:Core/Src/parser_simple.c **** void Parser_Parse(uint8_t *DataToParse)
 110:Core/Src/parser_simple.c **** {
 419              		.loc 1 110 1 is_stmt 1 view -0
 420              		.cfi_startproc
 421              		@ args = 0, pretend = 0, frame = 0
 422              		@ frame_needed = 0, uses_anonymous_args = 0
 423              		.loc 1 110 1 is_stmt 0 view .LVU87
 424 0000 10B5     		push	{r4, lr}
 425              		.cfi_def_cfa_offset 8
 426              		.cfi_offset 4, -8
 427              		.cfi_offset 14, -4
 111:Core/Src/parser_simple.c **** 
 112:Core/Src/parser_simple.c ****     char *ParsePointer = strtok((char *)DataToParse, "=");
 428              		.loc 1 112 5 is_stmt 1 view .LVU88
 429              		.loc 1 112 26 is_stmt 0 view .LVU89
 430 0002 0A49     		ldr	r1, .L41
 431 0004 FFF7FEFF 		bl	strtok
 432              	.LVL46:
 433              		.loc 1 112 26 view .LVU90
 434 0008 0446     		mov	r4, r0
 435              	.LVL47:
 113:Core/Src/parser_simple.c **** 
 114:Core/Src/parser_simple.c ****     // LED
 115:Core/Src/parser_simple.c ****     if (strcmp("LED", ParsePointer) == 0)
 436              		.loc 1 115 5 is_stmt 1 view .LVU91
 437              		.loc 1 115 9 is_stmt 0 view .LVU92
 438 000a 0146     		mov	r1, r0
 439 000c 0848     		ldr	r0, .L41+4
ARM GAS  C:\Users\danie\AppData\Local\Temp\ccB7IeSO.s 			page 12


 440              	.LVL48:
 441              		.loc 1 115 9 view .LVU93
 442 000e FFF7FEFF 		bl	strcmp
 443              	.LVL49:
 444              		.loc 1 115 8 view .LVU94
 445 0012 28B1     		cbz	r0, .L39
 446              	.L36:
 116:Core/Src/parser_simple.c ****     {
 117:Core/Src/parser_simple.c ****         Parse_ParseLED();
 118:Core/Src/parser_simple.c ****     }
 119:Core/Src/parser_simple.c **** 
 120:Core/Src/parser_simple.c ****     // ENV
 121:Core/Src/parser_simple.c ****     if (strcmp("ENV", ParsePointer) == 0)
 447              		.loc 1 121 5 is_stmt 1 view .LVU95
 448              		.loc 1 121 9 is_stmt 0 view .LVU96
 449 0014 2146     		mov	r1, r4
 450 0016 0748     		ldr	r0, .L41+8
 451 0018 FFF7FEFF 		bl	strcmp
 452              	.LVL50:
 453              		.loc 1 121 8 view .LVU97
 454 001c 18B1     		cbz	r0, .L40
 455              	.L35:
 122:Core/Src/parser_simple.c ****     {
 123:Core/Src/parser_simple.c ****         Parse_ParseENV();
 124:Core/Src/parser_simple.c ****     }
 125:Core/Src/parser_simple.c **** }...
 456              		.loc 1 125 1 view .LVU98
 457 001e 10BD     		pop	{r4, pc}
 458              	.LVL51:
 459              	.L39:
 117:Core/Src/parser_simple.c ****         Parse_ParseLED();
 460              		.loc 1 117 9 is_stmt 1 view .LVU99
 461 0020 FFF7FEFF 		bl	Parse_ParseLED
 462              	.LVL52:
 463 0024 F6E7     		b	.L36
 464              	.L40:
 123:Core/Src/parser_simple.c ****         Parse_ParseENV();
 465              		.loc 1 123 9 view .LVU100
 466 0026 FFF7FEFF 		bl	Parse_ParseENV
 467              	.LVL53:
 468              		.loc 1 125 1 is_stmt 0 view .LVU101
 469 002a F8E7     		b	.L35
 470              	.L42:
 471              		.align	2
 472              	.L41:
 473 002c 00000000 		.word	.LC9
 474 0030 04000000 		.word	.LC10
 475 0034 08000000 		.word	.LC11
 476              		.cfi_endproc
 477              	.LFE136:
 479              		.text
 480              	.Letext0:
 481              		.file 2 "c:\\users\\danie\\appdata\\roaming\\code\\user\\globalstorage\\bmd.stm32-for-vscode\\@xpa
 482              		.file 3 "c:\\users\\danie\\appdata\\roaming\\code\\user\\globalstorage\\bmd.stm32-for-vscode\\@xpa
 483              		.file 4 "Drivers/CMSIS/Device/ST/STM32F4xx/Include/stm32f411xe.h"
 484              		.file 5 "Drivers/STM32F4xx_HAL_Driver/Inc/stm32f4xx_hal_gpio.h"
 485              		.file 6 "Core/Inc/ring_buffer.h"
ARM GAS  C:\Users\danie\AppData\Local\Temp\ccB7IeSO.s 			page 13


 486              		.file 7 "c:\\users\\danie\\appdata\\roaming\\code\\user\\globalstorage\\bmd.stm32-for-vscode\\@xpa
 487              		.file 8 "c:\\users\\danie\\appdata\\roaming\\code\\user\\globalstorage\\bmd.stm32-for-vscode\\@xpa
 488              		.file 9 "Core/Inc/utils.h"
 489              		.file 10 "c:\\users\\danie\\appdata\\roaming\\code\\user\\globalstorage\\bmd.stm32-for-vscode\\@xp
ARM GAS  C:\Users\danie\AppData\Local\Temp\ccB7IeSO.s 			page 14


DEFINED SYMBOLS
                            *ABS*:0000000000000000 parser_simple.c
C:\Users\danie\AppData\Local\Temp\ccB7IeSO.s:20     .rodata.Parse_ParseLED.str1.4:0000000000000000 $d
C:\Users\danie\AppData\Local\Temp\ccB7IeSO.s:33     .text.Parse_ParseLED:0000000000000000 $t
C:\Users\danie\AppData\Local\Temp\ccB7IeSO.s:38     .text.Parse_ParseLED:0000000000000000 Parse_ParseLED
C:\Users\danie\AppData\Local\Temp\ccB7IeSO.s:122    .text.Parse_ParseLED:0000000000000050 $d
C:\Users\danie\AppData\Local\Temp\ccB7IeSO.s:131    .rodata.Parse_ParseENV.str1.4:0000000000000000 $d
C:\Users\danie\AppData\Local\Temp\ccB7IeSO.s:149    .text.Parse_ParseENV:0000000000000000 $t
C:\Users\danie\AppData\Local\Temp\ccB7IeSO.s:154    .text.Parse_ParseENV:0000000000000000 Parse_ParseENV
C:\Users\danie\AppData\Local\Temp\ccB7IeSO.s:313    .text.Parse_ParseENV:00000000000000a0 $d
C:\Users\danie\AppData\Local\Temp\ccB7IeSO.s:323    .text.Parser_TakeLine:0000000000000000 $t
C:\Users\danie\AppData\Local\Temp\ccB7IeSO.s:329    .text.Parser_TakeLine:0000000000000000 Parser_TakeLine
C:\Users\danie\AppData\Local\Temp\ccB7IeSO.s:400    .rodata.Parser_Parse.str1.4:0000000000000000 $d
C:\Users\danie\AppData\Local\Temp\ccB7IeSO.s:410    .text.Parser_Parse:0000000000000000 $t
C:\Users\danie\AppData\Local\Temp\ccB7IeSO.s:416    .text.Parser_Parse:0000000000000000 Parser_Parse
C:\Users\danie\AppData\Local\Temp\ccB7IeSO.s:473    .text.Parser_Parse:000000000000002c $d

UNDEFINED SYMBOLS
strtok
UartLog
HAL_GPIO_WritePin
__aeabi_d2f
__aeabi_f2d
atof
sprintf
RB_Read
strcmp
